target datalayout = "e-m:e-p270:32:32-p271:32:32-p272:64:64-i64:64-i128:128-f80:128-n8:16:32:64-S128"
target triple = "x86_64-unknown-linux-gnu"

%struct.PropertyInfo = type { ptr, ptr, ptr, i8, ptr, ptr, ptr, ptr, ptr, ptr }
%struct.Property = type { ptr, ptr, i64, i8, i64, i8, %union.anon.2, i32, ptr, i32, ptr }
%union.anon.2 = type { i64 }

; Function Attrs: nounwind sspstrong uwtable
define internal void @get_prop_pcielinkspeed(ptr noundef %obj, ptr noundef %v, ptr noundef %name, ptr noundef %opaque, ptr noundef %errp) #0 {
entry:
  %obj.addr = alloca ptr, align 8
  %v.addr = alloca ptr, align 8
  %name.addr = alloca ptr, align 8
  %opaque.addr = alloca ptr, align 8
  %errp.addr = alloca ptr, align 8
  %prop = alloca ptr, align 8
  %p = alloca ptr, align 8
  %speed = alloca i32, align 4
  store ptr %obj, ptr %obj.addr, align 8
  store ptr %v, ptr %v.addr, align 8
  store ptr %name, ptr %name.addr, align 8
  store ptr %opaque, ptr %opaque.addr, align 8
  store ptr %errp, ptr %errp.addr, align 8
  %0 = load ptr, ptr %opaque.addr, align 8
  store ptr %0, ptr %prop, align 8
  %1 = load ptr, ptr %obj.addr, align 8
  %2 = load ptr, ptr %prop, align 8
  %call = call ptr @object_field_prop_ptr(ptr noundef %1, ptr noundef %2)
  store ptr %call, ptr %p, align 8
  %3 = load ptr, ptr %p, align 8
  %4 = load i32, ptr %3, align 4
  switch i32 %4, label %sw.default [
    i32 1, label %sw.bb
    i32 2, label %sw.bb1
    i32 3, label %sw.bb2
    i32 4, label %sw.bb3
  ]

sw.bb:                                            ; preds = %entry
  store i32 0, ptr %speed, align 4
  br label %sw.epilog

sw.bb1:                                           ; preds = %entry
  store i32 1, ptr %speed, align 4
  br label %sw.epilog

sw.bb2:                                           ; preds = %entry
  store i32 2, ptr %speed, align 4
  br label %sw.epilog

sw.bb3:                                           ; preds = %entry
  store i32 3, ptr %speed, align 4
  br label %sw.epilog

sw.default:                                       ; preds = %entry
  call void @abort() #9
  unreachable

sw.epilog:                                        ; preds = %sw.bb3, %sw.bb2, %sw.bb1, %sw.bb
  %5 = load ptr, ptr %v.addr, align 8
  %6 = load ptr, ptr %name.addr, align 8
  %7 = load ptr, ptr %prop, align 8
  %info = getelementptr inbounds %struct.Property, ptr %7, i32 0, i32 1
  %8 = load ptr, ptr %info, align 8
  %enum_table = getelementptr inbounds %struct.PropertyInfo, ptr %8, i32 0, i32 2
  %9 = load ptr, ptr %enum_table, align 8
  %10 = load ptr, ptr %errp.addr, align 8
  %call4 = call zeroext i1 @visit_type_enum(ptr noundef %5, ptr noundef %6, ptr noundef %speed, ptr noundef %9, ptr noundef %10)
  ret void
}