; Function Attrs: nounwind sspstrong uwtable
define internal void @get_prop_pcielinkspeed(ptr noundef %obj, ptr noundef %v, ptr noundef %name, ptr noundef %opaque, ptr noundef %errp) #0 {
entry:
  %speed = alloca i32, align 4
  %call = tail call ptr @object_field_prop_ptr(ptr noundef %obj, ptr noundef %opaque) #10
  %0 = load i32, ptr %call, align 4
  %switch.tableidx = add i32 %0, -1
  %1 = icmp ult i32 %switch.tableidx, 4
  br i1 %1, label %sw.epilog, label %sw.default

sw.default:                                       ; preds = %entry
  tail call void @abort() #12
  unreachable

sw.epilog:                                        ; preds = %entry
  store i32 %switch.tableidx, ptr %speed, align 4
  %info = getelementptr inbounds nuw i8, ptr %opaque, i64 8
  %2 = load ptr, ptr %info, align 8
  %enum_table = getelementptr inbounds nuw i8, ptr %2, i64 16
  %3 = load ptr, ptr %enum_table, align 8
  %call4 = call zeroext i1 @visit_type_enum(ptr noundef %v, ptr noundef %name, ptr noundef nonnull %speed, ptr noundef %3, ptr noundef %errp) #10
  ret void
}